target datalayout = "e-m:e-p270:32:32-p271:32:32-p272:64:64-i64:64-i128:128-f80:128-n8:16:32:64-S128"
target triple = "x86_64-pc-linux-gnu"

%struct.Vec_Int_t_ = type { i32, i32, ptr }
%struct.Vec_Ptr_t_ = type { i32, i32, ptr }
%struct.Cba_Ntk_t_ = type { ptr, i32, i32, i32, i8, %struct.Vec_Int_t_, %struct.Vec_Int_t_, %struct.Vec_Int_t_, %struct.Vec_Int_t_, %struct.Vec_Str_t_, %struct.Vec_Int_t_, %struct.Vec_Int_t_, %struct.Vec_Int_t_, %struct.Vec_Int_t_, %struct.Vec_Int_t_, %struct.Vec_Int_t_, %struct.Vec_Int_t_, %struct.Vec_Int_t_, %struct.Vec_Int_t_, %struct.Vec_Int_t_, %struct.Vec_Int_t_, %struct.Vec_Int_t_, %struct.Vec_Int_t_, %struct.Vec_Int_t_, %struct.Vec_Int_t_, %struct.Vec_Int_t_, %struct.Vec_Int_t_, %struct.Vec_Int_t_, ptr, %struct.Vec_Int_t_, %struct.Vec_Int_t_ }
%struct.Vec_Str_t_ = type { i32, i32, ptr }
%struct.Cba_Man_t_ = type { ptr, ptr, ptr, ptr, ptr, ptr, %struct.Vec_Int_t_, %struct.Vec_Int_t_, %struct.Vec_Int_t_, %struct.Vec_Int_t_, [90 x ptr], [90 x i32], [90 x i32], i32, %struct.Vec_Ptr_t_, i32, %struct.Vec_Str_t_, %struct.Vec_Str_t_, ptr }

@.str = private unnamed_addr constant [3 x i8] c"wb\00", align 1
@.str.1 = private unnamed_addr constant [31 x i8] c"Cannot open output file \22%s\22.\0A\00", align 1
@.str.10 = private unnamed_addr constant [11 x i8] c".model %s\0A\00", align 1
@.str.11 = private unnamed_addr constant [8 x i8] c".inputs\00", align 1
@.str.12 = private unnamed_addr constant [9 x i8] c".outputs\00", align 1
@.str.13 = private unnamed_addr constant [7 x i8] c".end\0A\0A\00", align 1
@.str.14 = private unnamed_addr constant [75 x i8] c"Genlib library used in the mapped design is not longer a current library.\0A\00", align 1
@.str.15 = private unnamed_addr constant [53 x i8] c"# Design \22%s\22 written via CBA package in ABC on %s\0A\0A\00", align 1

; Function Attrs: inlinehint nounwind uwtable
define internal ptr @Cba_ManStr(ptr noundef %0, i32 noundef %1) #2 {
  %3 = alloca ptr, align 8
  %4 = alloca i32, align 4
  store ptr %0, ptr %3, align 8, !tbaa !56
  store i32 %1, ptr %4, align 4, !tbaa !21
  %5 = load ptr, ptr %3, align 8, !tbaa !56
  %6 = getelementptr inbounds nuw %struct.Cba_Man_t_, ptr %5, i32 0, i32 2
  %7 = load ptr, ptr %6, align 8, !tbaa !68
  %8 = load i32, ptr %4, align 4, !tbaa !21
  %9 = call ptr @Abc_NamStr(ptr noundef %7, i32 noundef %8)
  ret ptr %9
}

; Function Attrs: inlinehint nounwind uwtable
define internal ptr @Cba_NtkStr(ptr noundef %0, i32 noundef %1) #2 {
  %3 = alloca ptr, align 8
  %4 = alloca i32, align 4
  store ptr %0, ptr %3, align 8, !tbaa !29
  store i32 %1, ptr %4, align 4, !tbaa !21
  %5 = load ptr, ptr %3, align 8, !tbaa !29
  %6 = getelementptr inbounds nuw %struct.Cba_Ntk_t_, ptr %5, i32 0, i32 0
  %7 = load ptr, ptr %6, align 8, !tbaa !33
  %8 = load i32, ptr %4, align 4, !tbaa !21
  %9 = call ptr @Cba_ManStr(ptr noundef %7, i32 noundef %8)
  ret ptr %9
}

; Function Attrs: inlinehint nounwind uwtable
define internal ptr @Cba_NtkName(ptr noundef %0) #2 {
  %2 = alloca ptr, align 8
  store ptr %0, ptr %2, align 8, !tbaa !29
  %3 = load ptr, ptr %2, align 8, !tbaa !29
  %4 = load ptr, ptr %2, align 8, !tbaa !29
  %5 = getelementptr inbounds nuw %struct.Cba_Ntk_t_, ptr %4, i32 0, i32 2
  %6 = load i32, ptr %5, align 4, !tbaa !50
  %7 = call ptr @Cba_NtkStr(ptr noundef %3, i32 noundef %6)
  ret ptr %7
}

; Function Attrs: inlinehint nounwind uwtable
define internal ptr @Vec_PtrEntry(ptr noundef %0, i32 noundef %1) #2 {
  %3 = alloca ptr, align 8
  %4 = alloca i32, align 4
  store ptr %0, ptr %3, align 8, !tbaa !8
  store i32 %1, ptr %4, align 4, !tbaa !21
  %5 = load ptr, ptr %3, align 8, !tbaa !8
  %6 = getelementptr inbounds nuw %struct.Vec_Ptr_t_, ptr %5, i32 0, i32 2
  %7 = load ptr, ptr %6, align 8, !tbaa !27
  %8 = load i32, ptr %4, align 4, !tbaa !21
  %9 = sext i32 %8 to i64
  %10 = getelementptr inbounds ptr, ptr %7, i64 %9
  %11 = load ptr, ptr %10, align 8, !tbaa !28
  ret ptr %11
}

; Function Attrs: inlinehint nounwind uwtable
define internal i32 @Cba_ManNtkIsOk(ptr noundef %0, i32 noundef %1) #2 {
  %3 = alloca ptr, align 8
  %4 = alloca i32, align 4
  store ptr %0, ptr %3, align 8, !tbaa !56
  store i32 %1, ptr %4, align 4, !tbaa !21
  %5 = load i32, ptr %4, align 4, !tbaa !21
  %6 = icmp sgt i32 %5, 0
  br i1 %6, label %7, label %12

7:                                                ; preds = %2
  %8 = load i32, ptr %4, align 4, !tbaa !21
  %9 = load ptr, ptr %3, align 8, !tbaa !56
  %10 = call i32 @Cba_ManNtkNum(ptr noundef %9)
  %11 = icmp sle i32 %8, %10
  br label %12

12:                                               ; preds = %7, %2
  %13 = phi i1 [ false, %2 ], [ %11, %7 ]
  %14 = zext i1 %13 to i32
  ret i32 %14
}

; Function Attrs: inlinehint nounwind uwtable
define internal i32 @Vec_PtrSize(ptr noundef %0) #2 {
  %2 = alloca ptr, align 8
  store ptr %0, ptr %2, align 8, !tbaa !8
  %3 = load ptr, ptr %2, align 8, !tbaa !8
  %4 = getelementptr inbounds nuw %struct.Vec_Ptr_t_, ptr %3, i32 0, i32 1
  %5 = load i32, ptr %4, align 4, !tbaa !25
  ret i32 %5
}

; Function Attrs: nounwind uwtable
define void @Cba_ManWriteBlifNtk(ptr noundef %0, ptr noundef %1) #0 {
  %3 = alloca ptr, align 8
  %4 = alloca ptr, align 8
  store ptr %0, ptr %3, align 8, !tbaa !12
  store ptr %1, ptr %4, align 8, !tbaa !29
  %5 = load ptr, ptr %3, align 8, !tbaa !12
  %6 = load ptr, ptr %4, align 8, !tbaa !29
  %7 = call ptr @Cba_NtkName(ptr noundef %6)
  %8 = call i32 (ptr, ptr, ...) @fprintf(ptr noundef %5, ptr noundef @.str.10, ptr noundef %7) #7
  %9 = load ptr, ptr %3, align 8, !tbaa !12
  %10 = call i32 (ptr, ptr, ...) @fprintf(ptr noundef %9, ptr noundef @.str.11) #7
  %11 = load ptr, ptr %3, align 8, !tbaa !12
  %12 = load ptr, ptr %4, align 8, !tbaa !29
  %13 = load ptr, ptr %4, align 8, !tbaa !29
  %14 = getelementptr inbounds nuw %struct.Cba_Ntk_t_, ptr %13, i32 0, i32 5
  call void @Cba_ManWriteBlifArray(ptr noundef %11, ptr noundef %12, ptr noundef %14)
  %15 = load ptr, ptr %3, align 8, !tbaa !12
  %16 = call i32 (ptr, ptr, ...) @fprintf(ptr noundef %15, ptr noundef @.str.12) #7
  %17 = load ptr, ptr %3, align 8, !tbaa !12
  %18 = load ptr, ptr %4, align 8, !tbaa !29
  %19 = load ptr, ptr %4, align 8, !tbaa !29
  %20 = getelementptr inbounds nuw %struct.Cba_Ntk_t_, ptr %19, i32 0, i32 6
  call void @Cba_ManWriteBlifArray(ptr noundef %17, ptr noundef %18, ptr noundef %20)
  %21 = load ptr, ptr %3, align 8, !tbaa !12
  %22 = load ptr, ptr %4, align 8, !tbaa !29
  call void @Cba_ManWriteBlifLines(ptr noundef %21, ptr noundef %22)
  %23 = load ptr, ptr %3, align 8, !tbaa !12
  %24 = call i32 (ptr, ptr, ...) @fprintf(ptr noundef %23, ptr noundef @.str.13) #7
  ret void
}

; Function Attrs: inlinehint nounwind uwtable
define internal ptr @Cba_ManNtk(ptr noundef %0, i32 noundef %1) #2 {
  %3 = alloca ptr, align 8
  %4 = alloca i32, align 4
  store ptr %0, ptr %3, align 8, !tbaa !56
  store i32 %1, ptr %4, align 4, !tbaa !21
  %5 = load ptr, ptr %3, align 8, !tbaa !56
  %6 = load i32, ptr %4, align 4, !tbaa !21
  %7 = call i32 @Cba_ManNtkIsOk(ptr noundef %5, i32 noundef %6)
  %8 = icmp ne i32 %7, 0
  br i1 %8, label %9, label %14

9:                                                ; preds = %2
  %10 = load ptr, ptr %3, align 8, !tbaa !56
  %11 = getelementptr inbounds nuw %struct.Cba_Man_t_, ptr %10, i32 0, i32 14
  %12 = load i32, ptr %4, align 4, !tbaa !21
  %13 = call ptr @Vec_PtrEntry(ptr noundef %11, i32 noundef %12)
  br label %15

14:                                               ; preds = %2
  br label %15

15:                                               ; preds = %14, %9
  %16 = phi ptr [ %13, %9 ], [ null, %14 ]
  ret ptr %16
}

; Function Attrs: inlinehint nounwind uwtable
define internal i32 @Cba_ManNtkNum(ptr noundef %0) #2 {
  %2 = alloca ptr, align 8
  store ptr %0, ptr %2, align 8, !tbaa !56
  %3 = load ptr, ptr %2, align 8, !tbaa !56
  %4 = getelementptr inbounds nuw %struct.Cba_Man_t_, ptr %3, i32 0, i32 14
  %5 = call i32 @Vec_PtrSize(ptr noundef %4)
  %6 = sub nsw i32 %5, 1
  ret i32 %6
}

; Function Attrs: inlinehint nounwind uwtable
define internal ptr @Cba_ManName(ptr noundef %0) #2 {
  %2 = alloca ptr, align 8
  store ptr %0, ptr %2, align 8, !tbaa !56
  %3 = load ptr, ptr %2, align 8, !tbaa !56
  %4 = getelementptr inbounds nuw %struct.Cba_Man_t_, ptr %3, i32 0, i32 0
  %5 = load ptr, ptr %4, align 8, !tbaa !59
  ret ptr %5
}

; Function Attrs: nounwind uwtable
define void @Cba_ManWriteBlif(ptr noundef %0, ptr noundef %1) #0 {
  %3 = alloca ptr, align 8
  %4 = alloca ptr, align 8
  %5 = alloca ptr, align 8
  %6 = alloca ptr, align 8
  %7 = alloca i32, align 4
  %8 = alloca i32, align 4
  store ptr %0, ptr %3, align 8, !tbaa !3
  store ptr %1, ptr %4, align 8, !tbaa !56
  call void @llvm.lifetime.start.p0(i64 8, ptr %5) #7
  call void @llvm.lifetime.start.p0(i64 8, ptr %6) #7
  call void @llvm.lifetime.start.p0(i64 4, ptr %7) #7
  %9 = load ptr, ptr %4, align 8, !tbaa !56
  %10 = getelementptr inbounds nuw %struct.Cba_Man_t_, ptr %9, i32 0, i32 18
  %11 = load ptr, ptr %10, align 8, !tbaa !57
  %12 = icmp ne ptr %11, null
  br i1 %12, label %13, label %21

13:                                               ; preds = %2
  %14 = load ptr, ptr %4, align 8, !tbaa !56
  %15 = getelementptr inbounds nuw %struct.Cba_Man_t_, ptr %14, i32 0, i32 18
  %16 = load ptr, ptr %15, align 8, !tbaa !57
  %17 = call ptr (...) @Abc_FrameReadLibGen()
  %18 = icmp ne ptr %16, %17
  br i1 %18, label %19, label %21

19:                                               ; preds = %13
  %20 = call i32 (ptr, ...) @printf(ptr noundef @.str.14)
  store i32 1, ptr %8, align 4
  br label %55

21:                                               ; preds = %13, %2
  %22 = load ptr, ptr %3, align 8, !tbaa !3
  %23 = call noalias ptr @fopen(ptr noundef %22, ptr noundef @.str)
  store ptr %23, ptr %5, align 8, !tbaa !12
  %24 = load ptr, ptr %5, align 8, !tbaa !12
  %25 = icmp eq ptr %24, null
  br i1 %25, label %26, label %29

26:                                               ; preds = %21
  %27 = load ptr, ptr %3, align 8, !tbaa !3
  %28 = call i32 (ptr, ...) @printf(ptr noundef @.str.1, ptr noundef %27)
  store i32 1, ptr %8, align 4
  br label %55

29:                                               ; preds = %21
  %30 = load ptr, ptr %5, align 8, !tbaa !12
  %31 = load ptr, ptr %4, align 8, !tbaa !56
  %32 = call ptr @Cba_ManName(ptr noundef %31)
  %33 = call ptr (...) @Extra_TimeStamp()
  %34 = call i32 (ptr, ptr, ...) @fprintf(ptr noundef %30, ptr noundef @.str.15, ptr noundef %32, ptr noundef %33) #7
  store i32 1, ptr %7, align 4, !tbaa !21
  br label %35

35:                                               ; preds = %49, %29
  %36 = load i32, ptr %7, align 4, !tbaa !21
  %37 = load ptr, ptr %4, align 8, !tbaa !56
  %38 = call i32 @Cba_ManNtkNum(ptr noundef %37)
  %39 = icmp sle i32 %36, %38
  br i1 %39, label %40, label %44

40:                                               ; preds = %35
  %41 = load ptr, ptr %4, align 8, !tbaa !56
  %42 = load i32, ptr %7, align 4, !tbaa !21
  %43 = call ptr @Cba_ManNtk(ptr noundef %41, i32 noundef %42)
  store ptr %43, ptr %6, align 8, !tbaa !29
  br label %44

44:                                               ; preds = %40, %35
  %45 = phi i1 [ false, %35 ], [ true, %40 ]
  br i1 %45, label %46, label %52

46:                                               ; preds = %44
  %47 = load ptr, ptr %5, align 8, !tbaa !12
  %48 = load ptr, ptr %6, align 8, !tbaa !29
  call void @Cba_ManWriteBlifNtk(ptr noundef %47, ptr noundef %48)
  br label %49

49:                                               ; preds = %46
  %50 = load i32, ptr %7, align 4, !tbaa !21
  %51 = add nsw i32 %50, 1
  store i32 %51, ptr %7, align 4, !tbaa !21
  br label %35, !llvm.loop !58

52:                                               ; preds = %44
  %53 = load ptr, ptr %5, align 8, !tbaa !12
  %54 = call i32 @fclose(ptr noundef %53)
  store i32 0, ptr %8, align 4
  br label %55

55:                                               ; preds = %52, %26, %19
  call void @llvm.lifetime.end.p0(i64 4, ptr %7) #7
  call void @llvm.lifetime.end.p0(i64 8, ptr %6) #7
  call void @llvm.lifetime.end.p0(i64 8, ptr %5) #7
  %56 = load i32, ptr %8, align 4
  switch i32 %56, label %58 [
    i32 0, label %57
    i32 1, label %57
  ]

57:                                               ; preds = %55, %55
  ret void

58:                                               ; preds = %55
  unreachable
}