; Function Attrs: nounwind uwtable
define void @Cba_ManWriteBlif(ptr noundef %0, ptr noundef readonly captures(none) %1) local_unnamed_addr #0 {
  %3 = getelementptr inbounds nuw i8, ptr %1, i64 1616
  %4 = load ptr, ptr %3, align 8, !tbaa !50
  %.not = icmp eq ptr %4, null
  br i1 %.not, label %8, label %5

5:                                                ; preds = %2
  %6 = tail call ptr (...) @Abc_FrameReadLibGen() #7
  %.not16 = icmp eq ptr %4, %6
  br i1 %.not16, label %8, label %7

7:                                                ; preds = %5
  %puts = tail call i32 @puts(ptr nonnull dereferenceable(1) @str)
  br label %31

8:                                                ; preds = %5, %2
  %9 = tail call noalias ptr @fopen(ptr noundef %0, ptr noundef nonnull @.str)
  %10 = icmp eq ptr %9, null
  br i1 %10, label %11, label %13

11:                                               ; preds = %8
  %12 = tail call i32 (ptr, ...) @printf(ptr noundef nonnull dereferenceable(1) @.str.1, ptr noundef %0)
  br label %31

13:                                               ; preds = %8
  %.val18 = load ptr, ptr %1, align 8, !tbaa !51
  %14 = tail call ptr (...) @Extra_TimeStamp() #7
  %15 = tail call i32 (ptr, ptr, ...) @fprintf(ptr noundef nonnull %9, ptr noundef nonnull @.str.15, ptr noundef %.val18, ptr noundef %14) #7
  %16 = getelementptr i8, ptr %1, i64 1564
  %.val20 = load i32, ptr %16, align 4, !tbaa !3
  %.not17.not21 = icmp sgt i32 %.val20, 1
  br i1 %.not17.not21, label %Cba_ManNtk.exit.lr.ph, label %.critedge

Cba_ManNtk.exit.lr.ph:                            ; preds = %13
  %17 = getelementptr i8, ptr %1, i64 1568
  br label %Cba_ManNtk.exit

Cba_ManNtk.exit:                                  ; preds = %Cba_ManNtk.exit.lr.ph, %Cba_ManNtk.exit
  %indvars.iv = phi i64 [ 1, %Cba_ManNtk.exit.lr.ph ], [ %indvars.iv.next, %Cba_ManNtk.exit ]
  %.val.i = load ptr, ptr %17, align 8, !tbaa !9
  %18 = getelementptr inbounds nuw ptr, ptr %.val.i, i64 %indvars.iv
  %19 = load ptr, ptr %18, align 8, !tbaa !10
  %.val.i19 = load ptr, ptr %19, align 8, !tbaa !34
  %20 = getelementptr i8, ptr %19, i64 12
  %.val13.i = load i32, ptr %20, align 4, !tbaa !38
  %21 = getelementptr i8, ptr %.val.i19, i64 16
  %.val.val.i = load ptr, ptr %21, align 8, !tbaa !39
  %22 = tail call ptr @Abc_NamStr(ptr noundef %.val.val.i, i32 noundef %.val13.i) #7
  %23 = tail call i32 (ptr, ptr, ...) @fprintf(ptr noundef nonnull %9, ptr noundef nonnull @.str.10, ptr noundef %22) #7
  %24 = tail call i64 @fwrite(ptr nonnull @.str.11, i64 7, i64 1, ptr nonnull %9)
  %25 = getelementptr inbounds nuw i8, ptr %19, i64 24
  tail call void @Cba_ManWriteBlifArray(ptr noundef nonnull %9, ptr noundef nonnull %19, ptr noundef nonnull %25)
  %26 = tail call i64 @fwrite(ptr nonnull @.str.12, i64 8, i64 1, ptr nonnull %9)
  %27 = getelementptr inbounds nuw i8, ptr %19, i64 40
  tail call void @Cba_ManWriteBlifArray(ptr noundef nonnull %9, ptr noundef nonnull %19, ptr noundef nonnull %27)
  tail call void @Cba_ManWriteBlifLines(ptr noundef nonnull %9, ptr noundef nonnull %19)
  %28 = tail call i64 @fwrite(ptr nonnull @.str.13, i64 6, i64 1, ptr nonnull %9)
  %indvars.iv.next = add nuw nsw i64 %indvars.iv, 1
  %.val = load i32, ptr %16, align 4, !tbaa !3
  %29 = sext i32 %.val to i64
  %.not17.not = icmp slt i64 %indvars.iv.next, %29
  br i1 %.not17.not, label %Cba_ManNtk.exit, label %.critedge, !llvm.loop !52

.critedge:                                        ; preds = %Cba_ManNtk.exit, %13
  %30 = tail call i32 @fclose(ptr noundef nonnull %9)
  br label %31

31:                                               ; preds = %.critedge, %11, %7
  ret void
}